; Function Attrs: mustprogress uwtable
define void @_ZN7Imf_3_219TiledRgbaOutputFile10writeTilesEiiiiii(ptr nocapture noundef nonnull readonly align 8 dereferenceable(24) %this, i32 noundef %dxMin, i32 noundef %dxMax, i32 noundef %dyMin, i32 noundef %dyMax, i32 noundef %lx, i32 noundef %ly) local_unnamed_addr #3 align 2 {
entry:
  %_toYa = getelementptr inbounds i8, ptr %this, i64 16
  %0 = load ptr, ptr %_toYa, align 8
  %tobool.not = icmp eq ptr %0, null
  br i1 %tobool.not, label %if.else, label %for.cond.preheader

for.cond.preheader:                               ; preds = %entry
  %cmp.not13 = icmp sgt i32 %dyMin, %dyMax
  %cmp3.not11 = icmp sgt i32 %dxMin, %dxMax
  %or.cond = or i1 %cmp.not13, %cmp3.not11
  br i1 %or.cond, label %if.end, label %for.cond2.preheader

for.cond2.preheader:                              ; preds = %for.cond.preheader, %for.cond2.for.inc6_crit_edge
  %dy.014 = phi i32 [ %inc7, %for.cond2.for.inc6_crit_edge ], [ %dyMin, %for.cond.preheader ]
  br label %for.body4

for.body4:                                        ; preds = %for.cond2.preheader, %for.body4
  %dx.012 = phi i32 [ %dxMin, %for.cond2.preheader ], [ %inc, %for.body4 ]
  %1 = load ptr, ptr %_toYa, align 8
  tail call void @_ZN7Imf_3_219TiledRgbaOutputFile4ToYa9writeTileEiiii(ptr noundef nonnull align 8 dereferenceable(80) %1, i32 noundef %dx.012, i32 noundef %dy.014, i32 noundef %lx, i32 noundef %ly)
  %inc = add i32 %dx.012, 1
  %exitcond.not = icmp eq i32 %dx.012, %dxMax
  br i1 %exitcond.not, label %for.cond2.for.inc6_crit_edge, label %for.body4, !llvm.loop !8

for.cond2.for.inc6_crit_edge:                     ; preds = %for.body4
  %inc7 = add i32 %dy.014, 1
  %exitcond16.not = icmp eq i32 %dy.014, %dyMax
  br i1 %exitcond16.not, label %if.end, label %for.cond2.preheader, !llvm.loop !9

if.else:                                          ; preds = %entry
  %_outputFile = getelementptr inbounds i8, ptr %this, i64 8
  %2 = load ptr, ptr %_outputFile, align 8
  tail call void @_ZN7Imf_3_215TiledOutputFile10writeTilesEiiiiii(ptr noundef nonnull align 8 dereferenceable(25) %2, i32 noundef %dxMin, i32 noundef %dxMax, i32 noundef %dyMin, i32 noundef %dyMax, i32 noundef %lx, i32 noundef %ly)
  br label %if.end

if.end:                                           ; preds = %for.cond2.for.inc6_crit_edge, %for.cond.preheader, %if.else
  ret void
}